; Function Attrs: mustprogress nofree norecurse nosync nounwind willreturn memory(argmem: write) uwtable
define dso_local void @_ZN10ResKeyPathC2Ev(ptr noundef nonnull align 8 dereferenceable(24) %this) unnamed_addr #3 align 2 {
entry:
  %_M_prev.i.i.i.i.i = getelementptr inbounds i8, ptr %this, i64 8
  store ptr %this, ptr %_M_prev.i.i.i.i.i, align 8
  store ptr %this, ptr %this, align 8
  %_M_size.i.i.i.i.i = getelementptr inbounds i8, ptr %this, i64 16
  store i64 0, ptr %_M_size.i.i.i.i.i, align 8
  ret void
}